target datalayout = "e-m:e-p270:32:32-p271:32:32-p272:64:64-i64:64-i128:128-f80:128-n8:16:32:64-S128"
target triple = "x86_64-pc-linux-gnu"

%"class.icu_77::GregorianCalendar" = type <{ %"class.icu_77::Calendar", double, i32, [4 x i8], double, i32, i8, i8, [2 x i8] }>
%"class.icu_77::Calendar" = type <{ %"class.icu_77::UObject", [24 x i32], [24 x i8], i8, [7 x i8], double, ptr, i8, i16, i8, i32, i32, i32, i8, i8, i16, [4 x i8], ptr, ptr }>
%"class.icu_77::UObject" = type { ptr }

@_ZL12kLeapNumDays = internal constant [12 x i16] [i16 0, i16 31, i16 60, i16 91, i16 121, i16 152, i16 182, i16 213, i16 244, i16 274, i16 305, i16 335], align 16
@_ZL8kNumDays = internal constant [12 x i16] [i16 0, i16 31, i16 59, i16 90, i16 120, i16 151, i16 181, i16 212, i16 243, i16 273, i16 304, i16 334], align 16

; Function Attrs: inlinehint mustprogress nounwind uwtable
define linkonce_odr void @_ZN6icu_778Calendar11internalSetE19UCalendarDateFieldsi(ptr noundef nonnull align 8 dereferenceable(192) %0, i32 noundef %1, i32 noundef %2) #4 comdat align 2 {
  %4 = alloca ptr, align 8
  %5 = alloca i32, align 4
  %6 = alloca i32, align 4
  store ptr %0, ptr %4, align 8, !tbaa !32
  store i32 %1, ptr %5, align 4, !tbaa !45
  store i32 %2, ptr %6, align 4, !tbaa !31
  %7 = load ptr, ptr %4, align 8
  %8 = load i32, ptr %6, align 4, !tbaa !31
  %9 = getelementptr inbounds nuw %"class.icu_77::Calendar", ptr %7, i32 0, i32 1
  %10 = load i32, ptr %5, align 4, !tbaa !45
  %11 = zext i32 %10 to i64
  %12 = getelementptr inbounds nuw [24 x i32], ptr %9, i64 0, i64 %11
  store i32 %8, ptr %12, align 4, !tbaa !31
  %13 = getelementptr inbounds nuw %"class.icu_77::Calendar", ptr %7, i32 0, i32 2
  %14 = load i32, ptr %5, align 4, !tbaa !45
  %15 = zext i32 %14 to i64
  %16 = getelementptr inbounds nuw [24 x i8], ptr %13, i64 0, i64 %15
  store i8 1, ptr %16, align 1, !tbaa !37
  ret void
}

; Function Attrs: inlinehint mustprogress uwtable
define linkonce_odr noundef i32 @_ZN6icu_775Grego14gregorianShiftEi(i32 noundef %0) #6 comdat align 2 {
  %2 = alloca i32, align 4
  %3 = alloca i64, align 8
  %4 = alloca i64, align 8
  store i32 %0, ptr %2, align 4, !tbaa !31
  call void @llvm.lifetime.start.p0(i64 8, ptr %3) #10
  %5 = load i32, ptr %2, align 4, !tbaa !31
  %6 = sext i32 %5 to i64
  %7 = sub nsw i64 %6, 1
  store i64 %7, ptr %3, align 8, !tbaa !43
  call void @llvm.lifetime.start.p0(i64 8, ptr %4) #10
  %8 = load i64, ptr %3, align 8, !tbaa !43
  %9 = call noundef i64 @_ZN6icu_779ClockMath16floorDivideInt64Ell(i64 noundef %8, i64 noundef 400)
  %10 = load i64, ptr %3, align 8, !tbaa !43
  %11 = call noundef i64 @_ZN6icu_779ClockMath16floorDivideInt64Ell(i64 noundef %10, i64 noundef 100)
  %12 = sub nsw i64 %9, %11
  %13 = add nsw i64 %12, 2
  store i64 %13, ptr %4, align 8, !tbaa !43
  %14 = load i64, ptr %4, align 8, !tbaa !43
  %15 = trunc i64 %14 to i32
  call void @llvm.lifetime.end.p0(i64 8, ptr %4) #10
  call void @llvm.lifetime.end.p0(i64 8, ptr %3) #10
  ret i32 %15
}

; Function Attrs: mustprogress nounwind uwtable
define linkonce_odr noundef i32 @_ZNK6icu_778Calendar16getGregorianYearEv(ptr noundef nonnull align 8 dereferenceable(192) %0) #0 comdat align 2 {
  %2 = alloca ptr, align 8
  store ptr %0, ptr %2, align 8, !tbaa !32
  %3 = load ptr, ptr %2, align 8
  %4 = getelementptr inbounds nuw %"class.icu_77::Calendar", ptr %3, i32 0, i32 12
  %5 = load i32, ptr %4, align 4, !tbaa !42
  ret i32 %5
}

; Function Attrs: mustprogress nounwind uwtable
define linkonce_odr noundef i32 @_ZNK6icu_778Calendar21getGregorianDayOfYearEv(ptr noundef nonnull align 8 dereferenceable(192) %0) #0 comdat align 2 {
  %2 = alloca ptr, align 8
  store ptr %0, ptr %2, align 8, !tbaa !32
  %3 = load ptr, ptr %2, align 8
  %4 = getelementptr inbounds nuw %"class.icu_77::Calendar", ptr %3, i32 0, i32 15
  %5 = load i16, ptr %4, align 2, !tbaa !41
  %6 = sext i16 %5 to i32
  ret i32 %6
}

; Function Attrs: mustprogress nounwind uwtable
define linkonce_odr noundef i32 @_ZNK6icu_778Calendar22getGregorianDayOfMonthEv(ptr noundef nonnull align 8 dereferenceable(192) %0) #0 comdat align 2 {
  %2 = alloca ptr, align 8
  store ptr %0, ptr %2, align 8, !tbaa !32
  %3 = load ptr, ptr %2, align 8
  %4 = getelementptr inbounds nuw %"class.icu_77::Calendar", ptr %3, i32 0, i32 14
  %5 = load i8, ptr %4, align 1, !tbaa !40
  %6 = sext i8 %5 to i32
  ret i32 %6
}

; Function Attrs: mustprogress nounwind uwtable
define linkonce_odr noundef i32 @_ZNK6icu_778Calendar17getGregorianMonthEv(ptr noundef nonnull align 8 dereferenceable(192) %0) #0 comdat align 2 {
  %2 = alloca ptr, align 8
  store ptr %0, ptr %2, align 8, !tbaa !32
  %3 = load ptr, ptr %2, align 8
  %4 = getelementptr inbounds nuw %"class.icu_77::Calendar", ptr %3, i32 0, i32 13
  %5 = load i8, ptr %4, align 8, !tbaa !39
  %6 = sext i8 %5 to i32
  ret i32 %6
}

; Function Attrs: inlinehint mustprogress nounwind uwtable
define internal noundef signext i8 @_ZL9U_FAILURE10UErrorCode(i32 noundef %0) #4 {
  %2 = alloca i32, align 4
  store i32 %0, ptr %2, align 4, !tbaa !35
  %3 = load i32, ptr %2, align 4, !tbaa !35
  %4 = icmp sgt i32 %3, 0
  %5 = zext i1 %4 to i8
  ret i8 %5
}

; Function Attrs: mustprogress uwtable
define void @_ZN6icu_7717GregorianCalendar19handleComputeFieldsEiR10UErrorCode(ptr noundef nonnull align 8 dereferenceable(222) %0, i32 noundef %1, ptr noundef nonnull align 4 dereferenceable(4) %2) unnamed_addr #1 align 2 {
  %4 = alloca ptr, align 8
  %5 = alloca i32, align 4
  %6 = alloca ptr, align 8
  %7 = alloca i32, align 4
  %8 = alloca i32, align 4
  %9 = alloca i32, align 4
  %10 = alloca i32, align 4
  %11 = alloca i32, align 4
  %12 = alloca i32, align 4
  %13 = alloca i32, align 4
  %14 = alloca i32, align 4
  %15 = alloca i8, align 1
  %16 = alloca i32, align 4
  %17 = alloca i32, align 4
  %18 = alloca i32, align 4
  %19 = alloca i32, align 4
  store ptr %0, ptr %4, align 8, !tbaa !3
  store i32 %1, ptr %5, align 4, !tbaa !31
  store ptr %2, ptr %6, align 8, !tbaa !8
  %20 = load ptr, ptr %4, align 8
  call void @llvm.lifetime.start.p0(i64 4, ptr %7) #10
  call void @llvm.lifetime.start.p0(i64 4, ptr %8) #10
  call void @llvm.lifetime.start.p0(i64 4, ptr %9) #10
  call void @llvm.lifetime.start.p0(i64 4, ptr %10) #10
  call void @llvm.lifetime.start.p0(i64 4, ptr %11) #10
  %21 = load ptr, ptr %6, align 8, !tbaa !8
  %22 = load i32, ptr %21, align 4, !tbaa !35
  %23 = call noundef signext i8 @_ZL9U_FAILURE10UErrorCode(i32 noundef %22)
  %24 = icmp ne i8 %23, 0
  br i1 %24, label %25, label %26

25:                                               ; preds = %3
  store i32 1, ptr %12, align 4
  br label %125

26:                                               ; preds = %3
  %27 = load i32, ptr %5, align 4, !tbaa !31
  %28 = getelementptr inbounds nuw %"class.icu_77::GregorianCalendar", ptr %20, i32 0, i32 2
  %29 = load i32, ptr %28, align 8, !tbaa !23
  %30 = icmp sge i32 %27, %29
  br i1 %30, label %31, label %36

31:                                               ; preds = %26
  %32 = call noundef i32 @_ZNK6icu_778Calendar17getGregorianMonthEv(ptr noundef nonnull align 8 dereferenceable(192) %20)
  store i32 %32, ptr %8, align 4, !tbaa !31
  %33 = call noundef i32 @_ZNK6icu_778Calendar22getGregorianDayOfMonthEv(ptr noundef nonnull align 8 dereferenceable(192) %20)
  store i32 %33, ptr %9, align 4, !tbaa !31
  %34 = call noundef i32 @_ZNK6icu_778Calendar21getGregorianDayOfYearEv(ptr noundef nonnull align 8 dereferenceable(192) %20)
  store i32 %34, ptr %10, align 4, !tbaa !31
  %35 = call noundef i32 @_ZNK6icu_778Calendar16getGregorianYearEv(ptr noundef nonnull align 8 dereferenceable(192) %20)
  store i32 %35, ptr %7, align 4, !tbaa !31
  br label %95

36:                                               ; preds = %26
  call void @llvm.lifetime.start.p0(i64 4, ptr %13) #10
  %37 = load i32, ptr %5, align 4, !tbaa !31
  %38 = sub nsw i32 %37, 1721424
  store i32 %38, ptr %13, align 4, !tbaa !31
  %39 = load i32, ptr %13, align 4, !tbaa !31
  %40 = sitofp i32 %39 to double
  %41 = call double @llvm.fmuladd.f64(double 4.000000e+00, double %40, double 1.464000e+03)
  %42 = call noundef double @_ZN6icu_779ClockMath11floorDivideEdiPi(double noundef %41, i32 noundef 1461, ptr noundef %11)
  %43 = fptosi double %42 to i32
  store i32 %43, ptr %7, align 4, !tbaa !31
  call void @llvm.lifetime.start.p0(i64 4, ptr %14) #10
  %44 = load i32, ptr %7, align 4, !tbaa !31
  %45 = sub nsw i32 %44, 1
  %46 = mul nsw i32 365, %45
  %47 = load i32, ptr %7, align 4, !tbaa !31
  %48 = sub nsw i32 %47, 1
  %49 = call noundef i32 @_ZN6icu_779ClockMath11floorDivideEii(i32 noundef %48, i32 noundef 4)
  %50 = add nsw i32 %46, %49
  store i32 %50, ptr %14, align 4, !tbaa !31
  %51 = load i32, ptr %13, align 4, !tbaa !31
  %52 = load i32, ptr %14, align 4, !tbaa !31
  %53 = sub nsw i32 %51, %52
  store i32 %53, ptr %10, align 4, !tbaa !31
  call void @llvm.lifetime.start.p0(i64 1, ptr %15) #10
  %54 = load i32, ptr %7, align 4, !tbaa !31
  %55 = and i32 %54, 3
  %56 = icmp eq i32 %55, 0
  %57 = zext i1 %56 to i8
  store i8 %57, ptr %15, align 1, !tbaa !37
  call void @llvm.lifetime.start.p0(i64 4, ptr %16) #10
  store i32 0, ptr %16, align 4, !tbaa !31
  call void @llvm.lifetime.start.p0(i64 4, ptr %17) #10
  %58 = load i8, ptr %15, align 1, !tbaa !37
  %59 = icmp ne i8 %58, 0
  %60 = select i1 %59, i32 60, i32 59
  store i32 %60, ptr %17, align 4, !tbaa !31
  %61 = load i32, ptr %10, align 4, !tbaa !31
  %62 = load i32, ptr %17, align 4, !tbaa !31
  %63 = icmp sge i32 %61, %62
  br i1 %63, label %64, label %68

64:                                               ; preds = %36
  %65 = load i8, ptr %15, align 1, !tbaa !37
  %66 = icmp ne i8 %65, 0
  %67 = select i1 %66, i32 1, i32 2
  store i32 %67, ptr %16, align 4, !tbaa !31
  br label %68

68:                                               ; preds = %64, %36
  %69 = load i32, ptr %10, align 4, !tbaa !31
  %70 = load i32, ptr %16, align 4, !tbaa !31
  %71 = add nsw i32 %69, %70
  %72 = mul nsw i32 12, %71
  %73 = add nsw i32 %72, 6
  %74 = sdiv i32 %73, 367
  store i32 %74, ptr %8, align 4, !tbaa !31
  %75 = load i32, ptr %10, align 4, !tbaa !31
  %76 = load i8, ptr %15, align 1, !tbaa !37
  %77 = icmp ne i8 %76, 0
  br i1 %77, label %78, label %83

78:                                               ; preds = %68
  %79 = load i32, ptr %8, align 4, !tbaa !31
  %80 = sext i32 %79 to i64
  %81 = getelementptr inbounds [12 x i16], ptr @_ZL12kLeapNumDays, i64 0, i64 %80
  %82 = load i16, ptr %81, align 2, !tbaa !38
  br label %88

83:                                               ; preds = %68
  %84 = load i32, ptr %8, align 4, !tbaa !31
  %85 = sext i32 %84 to i64
  %86 = getelementptr inbounds [12 x i16], ptr @_ZL8kNumDays, i64 0, i64 %85
  %87 = load i16, ptr %86, align 2, !tbaa !38
  br label %88

88:                                               ; preds = %83, %78
  %89 = phi i16 [ %82, %78 ], [ %87, %83 ]
  %90 = sext i16 %89 to i32
  %91 = sub nsw i32 %75, %90
  %92 = add nsw i32 %91, 1
  store i32 %92, ptr %9, align 4, !tbaa !31
  %93 = load i32, ptr %10, align 4, !tbaa !31
  %94 = add nsw i32 %93, 1
  store i32 %94, ptr %10, align 4, !tbaa !31
  call void @llvm.lifetime.end.p0(i64 4, ptr %17) #10
  call void @llvm.lifetime.end.p0(i64 4, ptr %16) #10
  call void @llvm.lifetime.end.p0(i64 1, ptr %15) #10
  call void @llvm.lifetime.end.p0(i64 4, ptr %14) #10
  call void @llvm.lifetime.end.p0(i64 4, ptr %13) #10
  br label %95

95:                                               ; preds = %88, %31
  %96 = load i32, ptr %7, align 4, !tbaa !31
  %97 = getelementptr inbounds nuw %"class.icu_77::GregorianCalendar", ptr %20, i32 0, i32 5
  %98 = load i32, ptr %97, align 8, !tbaa !25
  %99 = icmp eq i32 %96, %98
  br i1 %99, label %100, label %111

100:                                              ; preds = %95
  %101 = load i32, ptr %5, align 4, !tbaa !31
  %102 = getelementptr inbounds nuw %"class.icu_77::GregorianCalendar", ptr %20, i32 0, i32 2
  %103 = load i32, ptr %102, align 8, !tbaa !23
  %104 = icmp sge i32 %101, %103
  br i1 %104, label %105, label %111

105:                                              ; preds = %100
  call void @llvm.lifetime.start.p0(i64 4, ptr %18) #10
  %106 = load i32, ptr %7, align 4, !tbaa !31
  %107 = call noundef i32 @_ZN6icu_775Grego14gregorianShiftEi(i32 noundef %106)
  store i32 %107, ptr %18, align 4, !tbaa !31
  %108 = load i32, ptr %18, align 4, !tbaa !31
  %109 = load i32, ptr %10, align 4, !tbaa !31
  %110 = add nsw i32 %109, %108
  store i32 %110, ptr %10, align 4, !tbaa !31
  call void @llvm.lifetime.end.p0(i64 4, ptr %18) #10
  br label %111

111:                                              ; preds = %105, %100, %95
  %112 = load i32, ptr %8, align 4, !tbaa !31
  call void @_ZN6icu_778Calendar11internalSetE19UCalendarDateFieldsi(ptr noundef nonnull align 8 dereferenceable(192) %20, i32 noundef 2, i32 noundef %112)
  %113 = load i32, ptr %8, align 4, !tbaa !31
  call void @_ZN6icu_778Calendar11internalSetE19UCalendarDateFieldsi(ptr noundef nonnull align 8 dereferenceable(192) %20, i32 noundef 23, i32 noundef %113)
  %114 = load i32, ptr %9, align 4, !tbaa !31
  call void @_ZN6icu_778Calendar11internalSetE19UCalendarDateFieldsi(ptr noundef nonnull align 8 dereferenceable(192) %20, i32 noundef 5, i32 noundef %114)
  %115 = load i32, ptr %10, align 4, !tbaa !31
  call void @_ZN6icu_778Calendar11internalSetE19UCalendarDateFieldsi(ptr noundef nonnull align 8 dereferenceable(192) %20, i32 noundef 6, i32 noundef %115)
  %116 = load i32, ptr %7, align 4, !tbaa !31
  call void @_ZN6icu_778Calendar11internalSetE19UCalendarDateFieldsi(ptr noundef nonnull align 8 dereferenceable(192) %20, i32 noundef 19, i32 noundef %116)
  call void @llvm.lifetime.start.p0(i64 4, ptr %19) #10
  store i32 1, ptr %19, align 4, !tbaa !31
  %117 = load i32, ptr %7, align 4, !tbaa !31
  %118 = icmp slt i32 %117, 1
  br i1 %118, label %119, label %122

119:                                              ; preds = %111
  store i32 0, ptr %19, align 4, !tbaa !31
  %120 = load i32, ptr %7, align 4, !tbaa !31
  %121 = sub nsw i32 1, %120
  store i32 %121, ptr %7, align 4, !tbaa !31
  br label %122

122:                                              ; preds = %119, %111
  %123 = load i32, ptr %19, align 4, !tbaa !31
  call void @_ZN6icu_778Calendar11internalSetE19UCalendarDateFieldsi(ptr noundef nonnull align 8 dereferenceable(192) %20, i32 noundef 0, i32 noundef %123)
  %124 = load i32, ptr %7, align 4, !tbaa !31
  call void @_ZN6icu_778Calendar11internalSetE19UCalendarDateFieldsi(ptr noundef nonnull align 8 dereferenceable(192) %20, i32 noundef 1, i32 noundef %124)
  call void @llvm.lifetime.end.p0(i64 4, ptr %19) #10
  store i32 0, ptr %12, align 4
  br label %125

125:                                              ; preds = %122, %25
  call void @llvm.lifetime.end.p0(i64 4, ptr %11) #10
  call void @llvm.lifetime.end.p0(i64 4, ptr %10) #10
  call void @llvm.lifetime.end.p0(i64 4, ptr %9) #10
  call void @llvm.lifetime.end.p0(i64 4, ptr %8) #10
  call void @llvm.lifetime.end.p0(i64 4, ptr %7) #10
  %126 = load i32, ptr %12, align 4
  switch i32 %126, label %128 [
    i32 0, label %127
    i32 1, label %127
  ]

127:                                              ; preds = %125, %125
  ret void

128:                                              ; preds = %125
  unreachable
}