; Function Attrs: mustprogress uwtable
define void @_ZN6icu_7717GregorianCalendar19handleComputeFieldsEiR10UErrorCode(ptr noundef nonnull align 8 captures(none) dereferenceable(222) %0, i32 noundef %1, ptr noundef nonnull readonly align 4 captures(none) dereferenceable(4) %2) unnamed_addr #1 align 2 {
  %4 = alloca i32, align 4
  call void @llvm.lifetime.start.p0(i64 4, ptr nonnull %4) #9
  %5 = load i32, ptr %2, align 4, !tbaa !25
  %6 = icmp slt i32 %5, 1
  br i1 %6, label %7, label %76

7:                                                ; preds = %3
  %8 = getelementptr inbounds nuw i8, ptr %0, i64 200
  %9 = load i32, ptr %8, align 8, !tbaa !20
  %.not41 = icmp slt i32 %1, %9
  br i1 %.not41, label %22, label %10

10:                                               ; preds = %7
  %11 = getelementptr inbounds nuw i8, ptr %0, i64 168
  %12 = load i8, ptr %11, align 8, !tbaa !27
  %13 = sext i8 %12 to i32
  %14 = getelementptr inbounds nuw i8, ptr %0, i64 169
  %15 = load i8, ptr %14, align 1, !tbaa !28
  %16 = sext i8 %15 to i32
  %17 = getelementptr inbounds nuw i8, ptr %0, i64 170
  %18 = load i16, ptr %17, align 2, !tbaa !29
  %19 = sext i16 %18 to i32
  %20 = getelementptr inbounds nuw i8, ptr %0, i64 164
  %21 = load i32, ptr %20, align 4, !tbaa !30
  br label %46

22:                                               ; preds = %7
  %23 = add nsw i32 %1, -1721424
  %24 = sitofp i32 %23 to double
  %25 = tail call double @llvm.fmuladd.f64(double %24, double 4.000000e+00, double 1.464000e+03)
  %26 = call noundef double @_ZN6icu_779ClockMath11floorDivideEdiPi(double noundef %25, i32 noundef 1461, ptr noundef nonnull %4)
  %27 = fptosi double %26 to i32
  %28 = add nsw i32 %27, -1
  %29 = call noundef i32 @_ZN6icu_779ClockMath11floorDivideEii(i32 noundef %28, i32 noundef 4)
  %.neg44 = mul i32 %28, -365
  %.neg45 = sub i32 %23, %29
  %30 = add i32 %.neg45, %.neg44
  %31 = and i32 %27, 3
  %32 = icmp eq i32 %31, 0
  %33 = select i1 %32, i32 60, i32 59
  %.not42 = icmp slt i32 %30, %33
  %34 = select i1 %32, i32 1, i32 2
  %spec.select = select i1 %.not42, i32 0, i32 %34
  %35 = add nsw i32 %spec.select, %30
  %36 = mul nsw i32 %35, 12
  %37 = add nsw i32 %36, 6
  %38 = sdiv i32 %37, 367
  %39 = sext i32 %38 to i64
  %40 = getelementptr inbounds [12 x i16], ptr @_ZL12kLeapNumDays, i64 0, i64 %39
  %41 = getelementptr inbounds [12 x i16], ptr @_ZL8kNumDays, i64 0, i64 %39
  %.in = select i1 %32, ptr %40, ptr %41
  %42 = load i16, ptr %.in, align 2, !tbaa !31
  %43 = sext i16 %42 to i32
  %reass.sub = sub i32 %30, %43
  %44 = add i32 %reass.sub, 1
  %45 = add nsw i32 %30, 1
  %.pre = load i32, ptr %8, align 8
  br label %46

46:                                               ; preds = %22, %10
  %47 = phi i32 [ %9, %10 ], [ %.pre, %22 ]
  %.038 = phi i32 [ %19, %10 ], [ %45, %22 ]
  %.037 = phi i32 [ %16, %10 ], [ %44, %22 ]
  %.035 = phi i32 [ %13, %10 ], [ %38, %22 ]
  %.034 = phi i32 [ %21, %10 ], [ %27, %22 ]
  %48 = getelementptr inbounds nuw i8, ptr %0, i64 216
  %49 = load i32, ptr %48, align 8, !tbaa !22
  %50 = icmp ne i32 %.034, %49
  %.not43 = icmp slt i32 %1, %47
  %or.cond = select i1 %50, i1 true, i1 %.not43
  br i1 %or.cond, label %.split40, label %51

51:                                               ; preds = %46
  %52 = sext i32 %.034 to i64
  %53 = add nsw i64 %52, -1
  %54 = call noundef i64 @_ZN6icu_779ClockMath16floorDivideInt64Ell(i64 noundef %53, i64 noundef 400)
  %55 = call noundef i64 @_ZN6icu_779ClockMath16floorDivideInt64Ell(i64 noundef %53, i64 noundef 100)
  %56 = sub nsw i64 %54, %55
  %57 = trunc i64 %56 to i32
  %58 = add i32 %.038, 2
  %59 = add i32 %58, %57
  br label %.split40

.split40:                                         ; preds = %51, %46
  %.139 = phi i32 [ %59, %51 ], [ %.038, %46 ]
  %60 = getelementptr inbounds nuw i8, ptr %0, i64 8
  %61 = getelementptr inbounds nuw i8, ptr %0, i64 16
  store i32 %.035, ptr %61, align 8, !tbaa !32
  %62 = getelementptr inbounds nuw i8, ptr %0, i64 104
  %63 = getelementptr inbounds nuw i8, ptr %0, i64 106
  store i8 1, ptr %63, align 2, !tbaa !33
  %64 = getelementptr inbounds nuw i8, ptr %0, i64 100
  store i32 %.035, ptr %64, align 4, !tbaa !32
  %65 = getelementptr inbounds nuw i8, ptr %0, i64 127
  store i8 1, ptr %65, align 1, !tbaa !33
  %66 = getelementptr inbounds nuw i8, ptr %0, i64 28
  store i32 %.037, ptr %66, align 4, !tbaa !32
  %67 = getelementptr inbounds nuw i8, ptr %0, i64 109
  store i8 1, ptr %67, align 1, !tbaa !33
  %68 = getelementptr inbounds nuw i8, ptr %0, i64 32
  store i32 %.139, ptr %68, align 8, !tbaa !32
  %69 = getelementptr inbounds nuw i8, ptr %0, i64 110
  store i8 1, ptr %69, align 2, !tbaa !33
  %70 = getelementptr inbounds nuw i8, ptr %0, i64 84
  store i32 %.034, ptr %70, align 4, !tbaa !32
  %71 = getelementptr inbounds nuw i8, ptr %0, i64 123
  store i8 1, ptr %71, align 1, !tbaa !33
  %72 = icmp sgt i32 %.034, 0
  %73 = sub nsw i32 1, %.034
  %storemerge = zext i1 %72 to i32
  %.1 = select i1 %72, i32 %.034, i32 %73
  store i32 %storemerge, ptr %60, align 8, !tbaa !32
  store i8 1, ptr %62, align 8, !tbaa !33
  %74 = getelementptr inbounds nuw i8, ptr %0, i64 12
  store i32 %.1, ptr %74, align 4, !tbaa !32
  %75 = getelementptr inbounds nuw i8, ptr %0, i64 105
  store i8 1, ptr %75, align 1, !tbaa !33
  br label %76

76:                                               ; preds = %3, %.split40
  call void @llvm.lifetime.end.p0(i64 4, ptr nonnull %4) #9
  ret void
}